; Function Attrs: mustprogress nofree norecurse nosync nounwind null_pointer_is_valid sspstrong willreturn memory(read, argmem: readwrite, inaccessiblemem: none) uwtable
define i32 @proto_get_first_protocol(ptr noundef writeonly captures(none) %0) local_unnamed_addr #24 {
  %2 = load ptr, ptr @protocols, align 8
  %3 = icmp eq ptr %2, null
  br i1 %3, label %8, label %4

4:                                                ; preds = %1
  store ptr %2, ptr %0, align 8
  %5 = load ptr, ptr %2, align 8
  %6 = getelementptr inbounds nuw i8, ptr %5, i64 32
  %7 = load i32, ptr %6, align 8
  br label %8

8:                                                ; preds = %1, %4
  %.0 = phi i32 [ %7, %4 ], [ -1, %1 ]
  ret i32 %.0
}